source_filename = "test"
target datalayout = "e-p:32:32-f64:32:64-f80:32-n8:16:32-S128"

%_RTL_CRITICAL_SECTION = type { %_RTL_CRITICAL_SECTION_DEBUG*, i32, i32, i32*, i32*, i32 }
%_RTL_CRITICAL_SECTION_DEBUG = type { i16, i16, %_RTL_CRITICAL_SECTION*, %_LIST_ENTRY, i32, i32, i32, i16, i16 }
%_LIST_ENTRY = type { %_LIST_ENTRY*, %_LIST_ENTRY* }

@global_var_40c38c = local_unnamed_addr global i32 0
@global_var_40c388 = local_unnamed_addr global i32 0
@global_var_40c384 = local_unnamed_addr global i32 0
@global_var_40c03c = local_unnamed_addr global i32 0
@global_var_40c008 = local_unnamed_addr global i32 0
@global_var_40c398 = local_unnamed_addr global i32 0
@global_var_40c3a8 = local_unnamed_addr global i32 0
@global_var_408020 = local_unnamed_addr global i32 -1
@global_var_40c380 = local_unnamed_addr global i32 0
@global_var_40c000 = local_unnamed_addr global i32 0
@global_var_40c018 = local_unnamed_addr global i32 0
@global_var_408014 = local_unnamed_addr global i32 -1
@global_var_40cda0 = local_unnamed_addr global i32 0
@global_var_40cda4 = local_unnamed_addr global i32 0
@global_var_40c004 = local_unnamed_addr global i32 0
@global_var_40911c = local_unnamed_addr constant i32 4201488
@global_var_40c3ac = local_unnamed_addr global i32 0
@global_var_40cd98 = local_unnamed_addr global i32 0
@global_var_40cd94 = local_unnamed_addr global i32 0
@global_var_408000 = local_unnamed_addr global i32 10
@global_var_40c00c = local_unnamed_addr global i32 0
@global_var_40f008 = local_unnamed_addr global i32 0
@global_var_40f000 = local_unnamed_addr global i32 0
@global_var_40f018 = local_unnamed_addr global i32 0
@global_var_40f00c = local_unnamed_addr global i32 0
@global_var_409000 = local_unnamed_addr constant [19 x i8] c"libgcc_s_dw2-1.dll\00"
@global_var_40cd9c = local_unnamed_addr global i32 0
@global_var_409013 = local_unnamed_addr constant [22 x i8] c"__register_frame_info\00"
@global_var_409029 = local_unnamed_addr constant [24 x i8] c"__deregister_frame_info\00"
@global_var_408004 = local_unnamed_addr global i32 0
@global_var_40c01c = local_unnamed_addr global i32 0
@global_var_40a0f8 = local_unnamed_addr constant i32 20
@global_var_409049 = constant i32 1157627936
@global_var_40904c = constant [32 x i8] c"Enter Password (or q to quit): \00"
@global_var_40906c = constant [92 x i8] c"1072 1088 1088 1072 800 784 1968 848 880 1824 784 1760 864 880 1664 816 768 1824 1936 2000 \00"
@global_var_4090c8 = constant [15 x i8] c"Access Granted\00"
@global_var_4090d7 = constant i32 1665204337
@global_var_4090d9 = constant [14 x i8] c"Access Denied\00"
@global_var_40c034 = local_unnamed_addr global i32 0
@global_var_408008 = local_unnamed_addr global i32 4226500
@global_var_407db0 = constant i32 -1
@global_var_40c038 = local_unnamed_addr global i32 0
@global_var_408050 = local_unnamed_addr global i32 -1153374642
@global_var_408054 = local_unnamed_addr global i32 1153374641
@global_var_40c320 = local_unnamed_addr global i32 0
@global_var_40c324 = local_unnamed_addr global i32 0
@global_var_40c104 = local_unnamed_addr global i32 0
@global_var_40c0f8 = local_unnamed_addr global i32 0
@global_var_40c32c = local_unnamed_addr global i32 0
@global_var_40c0ec = local_unnamed_addr global i32 0
@global_var_40c040 = local_unnamed_addr global i32 0
@global_var_40801c = local_unnamed_addr global i32 2
@global_var_40f030 = local_unnamed_addr global i32 0
@global_var_40c394 = local_unnamed_addr global i32 0
@global_var_409138 = local_unnamed_addr constant [14 x i8] c"Unknown error\00"
@global_var_409174 = constant [31 x i8] c"Argument domain error (DOMAIN)\00"
@global_var_409193 = constant [28 x i8] c"Argument singularity (SIGN)\00"
@global_var_4091b0 = constant [32 x i8] c"Overflow range error (OVERFLOW)\00"
@global_var_4091d0 = constant [54 x i8] c"The result is too small to be represented (UNDERFLOW)\00"
@global_var_409208 = constant [35 x i8] c"Total loss of significance (TLOSS)\00"
@global_var_40922c = constant [37 x i8] c"Partial loss of significance (PLOSS)\00"
@global_var_409254 = local_unnamed_addr constant [6 x i8*] [i8* getelementptr inbounds ([31 x i8], [31 x i8]* @global_var_409174, i32 0, i32 0), i8* getelementptr inbounds ([28 x i8], [28 x i8]* @global_var_409193, i32 0, i32 0), i8* getelementptr inbounds ([32 x i8], [32 x i8]* @global_var_4091b0, i32 0, i32 0), i8* getelementptr inbounds ([54 x i8], [54 x i8]* @global_var_4091d0, i32 0, i32 0), i8* getelementptr inbounds ([35 x i8], [35 x i8]* @global_var_409208, i32 0, i32 0), i8* getelementptr inbounds ([37 x i8], [37 x i8]* @global_var_40922c, i32 0, i32 0)]
@global_var_409148 = local_unnamed_addr constant [43 x i8] c"_matherr(): %s in %s(%g, %g)  (retval=%g)\0A\00"
@global_var_40c3a0 = local_unnamed_addr global i32 0
@global_var_40c3a4 = local_unnamed_addr global i32 0
@global_var_4092dc = local_unnamed_addr constant [39 x i8] c"  VirtualProtect failed with code 0x%x\00"
@global_var_4092a8 = local_unnamed_addr constant [49 x i8] c"  VirtualQuery failed for %d bytes at address %p\00"
@global_var_409288 = local_unnamed_addr constant [32 x i8] c"Address %p has no image-section\00"
@global_var_40c39c = local_unnamed_addr global i32 0
@global_var_40973c = local_unnamed_addr constant i32 0
@global_var_409748 = local_unnamed_addr constant i32 54136
@global_var_409338 = local_unnamed_addr constant [42 x i8] c"  Unknown pseudo relocation bit size %d.\0A\00"
@global_var_409740 = local_unnamed_addr constant i32 0
@global_var_409744 = local_unnamed_addr constant i32 1
@global_var_409304 = local_unnamed_addr constant [50 x i8] c"  Unknown pseudo relocation protocol version %d.\0A\00"
@global_var_40c3b0 = local_unnamed_addr global i32 0
@global_var_40c3b4 = local_unnamed_addr global i32 0
@global_var_408024 = local_unnamed_addr global i32 64
@global_var_409364 = local_unnamed_addr constant [7 x i8] c"(null)\00"
@global_var_40936b = local_unnamed_addr constant [4 x i8] c"NaN\00"
@global_var_40936f = local_unnamed_addr constant [4 x i8] c"Inf\00"
@global_var_409374 = local_unnamed_addr constant [7 x i16] %wide-string
@global_var_4094fd = local_unnamed_addr constant i32 -939524048
@global_var_4094f9 = local_unnamed_addr constant [4 x i8] c"NaN\00"
@global_var_4094f0 = local_unnamed_addr constant [9 x i8] c"Infinity\00"
@global_var_40cd28 = local_unnamed_addr global i32 0
@global_var_40cd00 = local_unnamed_addr global i32 0
@global_var_40c400 = global i32 0
@global_var_40803c = local_unnamed_addr global i32* @global_var_40c400
@global_var_40c3e0 = local_unnamed_addr global i32 0
@global_var_40955c = local_unnamed_addr constant i32 0
@global_var_40cd88 = local_unnamed_addr global i32 0
@global_var_40cd84 = local_unnamed_addr global i32 0
@global_var_40cd80 = local_unnamed_addr global i32 0
@global_var_40cd8c = local_unnamed_addr global i32 0
@global_var_40cd90 = local_unnamed_addr global i32 0
@global_var_4096c0 = local_unnamed_addr constant [11 x i16] %wide-string
@global_var_4096d6 = local_unnamed_addr constant [20 x i8] c"___lc_codepage_func\00"
@global_var_40804c = local_unnamed_addr global i32 4225200
@global_var_4096ea = local_unnamed_addr constant [14 x i8] c"__lc_codepage\00"
@global_var_4090e8 = constant [42 x i8] c"basic_string::_M_construct null not valid\00"
@global_var_409045 = constant [3 x i8] c"%d\00"
@global_var_40926c = local_unnamed_addr constant [28 x i8] c"Mingw-w64 runtime failure:\0A\00"
@0 = external global i32
@global_var_40c010 = local_unnamed_addr global i8*** null
@global_var_40c014 = local_unnamed_addr global i8*** null
@global_var_409048 = external constant i8*
@global_var_40c3b8 = local_unnamed_addr global %_RTL_CRITICAL_SECTION* null
@global_var_409514 = local_unnamed_addr constant float 1.500000e+00
@global_var_409518 = local_unnamed_addr constant double 0x3FD287A7636F4361
@global_var_409520 = local_unnamed_addr constant double 0x3FC68A288B60C8B3
@global_var_409528 = local_unnamed_addr constant double 0x3FD34413509F79FB
@global_var_409530 = local_unnamed_addr constant double 7.000000e-17
@global_var_409580 = local_unnamed_addr constant double* null
@global_var_40954c = local_unnamed_addr constant float 7.000000e+00
@global_var_409578 = local_unnamed_addr constant double* null
@global_var_409554 = local_unnamed_addr constant float 5.000000e-01
@global_var_409540 = local_unnamed_addr constant float 1.000000e+00
@global_var_409544 = local_unnamed_addr constant float 1.000000e+01
@global_var_409538 = local_unnamed_addr constant double 3.010300e-01
@global_var_409550 = local_unnamed_addr constant float 5.000000e+00
@global_var_409548 = local_unnamed_addr constant float 3.000000e+00
@global_var_40cd40 = local_unnamed_addr global %_RTL_CRITICAL_SECTION* null
@global_var_40cd58 = local_unnamed_addr global %_RTL_CRITICAL_SECTION* null

define i32 @_atexit(i32 %arg1) local_unnamed_addr {
dec_label_pc_4014c0:
  %0 = inttoptr i32 %arg1 to i32 ()*, !insn.addr !0
  %1 = call i32 ()* @_onexit(i32 ()* %0), !insn.addr !0
  %2 = icmp eq i32 ()* %1, null, !insn.addr !1
  %3 = sext i1 %2 to i32, !insn.addr !2
  ret i32 %3, !insn.addr !3
}

define i32 @__Z6cryptoRKNSt7__cxx1112basic_stringIcSt11char_traitsIcESaIcEEE(i32* %result, i32* %arg2) local_unnamed_addr {
dec_label_pc_4015e8:
  %esp.02.reg2mem = alloca i32, !insn.addr !4
  %.reg2mem3 = alloca i32*, !insn.addr !4
  %.reg2mem = alloca i32*, !insn.addr !4
  %stack_var_-68 = alloca i32, align 4
  %stack_var_-44 = alloca i32, align 4
  %stack_var_-80 = alloca i32, align 4
  %stack_var_-76 = alloca i32, align 4
  %stack_var_-116 = alloca i32, align 4
  %stack_var_-69 = alloca i32, align 4
  %0 = call i32 @_ZNSaIcEC1Ev(), !insn.addr !5
  %1 = call i32 @_ZNSt7__cxx1112basic_stringIcSt11char_traitsIcESaIcEEC1EPKcRKS3_(i8* bitcast (i8** @global_var_409048 to i8*), i32* nonnull %stack_var_-69), !insn.addr !6
  %2 = ptrtoint i32* %stack_var_-116 to i32, !insn.addr !7
  %3 = call i32 @_ZNSaIcED1Ev(), !insn.addr !8
  %4 = call i32 @_ZNKSt7__cxx1112basic_stringIcSt11char_traitsIcESaIcEE5beginEv(), !insn.addr !9
  store i32 %4, i32* %stack_var_-76, align 4, !insn.addr !10
  %5 = call i32 @_ZNKSt7__cxx1112basic_stringIcSt11char_traitsIcESaIcEE3endEv(), !insn.addr !11
  store i32 %5, i32* %stack_var_-80, align 4, !insn.addr !12
  %6 = add i32 %2, 4, !insn.addr !13
  %7 = inttoptr i32 %6 to i32*, !insn.addr !13
  %8 = ptrtoint i32* %stack_var_-80 to i32, !insn.addr !13
  store i32 %8, i32* %7, align 4, !insn.addr !13
  %9 = ptrtoint i32* %stack_var_-76 to i32, !insn.addr !14
  store i32 %9, i32* %stack_var_-116, align 4, !insn.addr !14
  %10 = call i1 @__ZN9__gnu_cxxneIPKcNSt7__cxx1112basic_stringIcSt11char_traitsIcESaIcEEEEEbRKNS_17__normal_iteratorIT_T0_EESE_(i32* nonnull @0, i32* nonnull @0), !insn.addr !15
  %11 = icmp eq i1 %10, false, !insn.addr !16
  br i1 %11, label %dec_label_pc_401712, label %dec_label_pc_401656.lr.ph, !insn.addr !17

dec_label_pc_401656.lr.ph:                        ; preds = %dec_label_pc_4015e8
  %12 = ptrtoint i32* %stack_var_-44 to i32
  %13 = ptrtoint i32* %stack_var_-68 to i32
  store i32* %stack_var_-116, i32** %.reg2mem
  store i32* %7, i32** %.reg2mem3
  store i32 %2, i32* %esp.02.reg2mem
  br label %dec_label_pc_401656

dec_label_pc_401656:                              ; preds = %dec_label_pc_401656.lr.ph, %dec_label_pc_401656
  %esp.02.reload = load i32, i32* %esp.02.reg2mem
  %.reload4 = load i32*, i32** %.reg2mem3
  %.reload = load i32*, i32** %.reg2mem
  %14 = call i32 @__ZNK9__gnu_cxx17__normal_iteratorIPKcNSt7__cxx1112basic_stringIcSt11char_traitsIcESaIcEEEEdeEv(), !insn.addr !18
  %15 = inttoptr i32 %14 to i8*, !insn.addr !19
  %16 = load i8, i8* %15, align 1, !insn.addr !19
  %17 = sext i8 %16 to i32, !insn.addr !20
  %18 = mul i32 %17, 16, !insn.addr !21
  store i32 %18, i32* %.reload4, align 4, !insn.addr !22
  store i32 %12, i32* %.reload, align 4, !insn.addr !23
  %19 = zext i8 %16 to i32
  %20 = inttoptr i32 %19 to i32*, !insn.addr !24
  %21 = call i32 @__ZNSt7__cxx119to_stringEi(i32* %20, i32 ptrtoint (i32* @0 to i32)), !insn.addr !24
  %22 = add i32 %esp.02.reload, 8, !insn.addr !25
  %23 = inttoptr i32 %22 to i32*, !insn.addr !25
  store i32 ptrtoint (i32* @global_var_409049 to i32), i32* %23, align 4, !insn.addr !25
  store i32 %12, i32* %.reload4, align 4, !insn.addr !26
  store i32 %13, i32* %.reload, align 4, !insn.addr !27
  %24 = call i32 @__ZStplIcSt11char_traitsIcESaIcEENSt7__cxx1112basic_stringIT_T0_T1_EEOS8_PKS5_(i32* nonnull @0, i32* nonnull @0, i8* bitcast (i32* @0 to i8*)), !insn.addr !28
  store i32 %13, i32* %.reload, align 4, !insn.addr !29
  %25 = call i32 @_ZNSt7__cxx1112basic_stringIcSt11char_traitsIcESaIcEEpLERKS4_(i32* nonnull @0), !insn.addr !30
  %26 = add i32 %esp.02.reload, -4, !insn.addr !31
  %27 = call i32 @_ZNSt7__cxx1112basic_stringIcSt11char_traitsIcESaIcEED1Ev(), !insn.addr !32
  %28 = call i32 @_ZNSt7__cxx1112basic_stringIcSt11char_traitsIcESaIcEED1Ev(), !insn.addr !33
  %29 = call i32 @__ZN9__gnu_cxx17__normal_iteratorIPKcNSt7__cxx1112basic_stringIcSt11char_traitsIcESaIcEEEEppEv(), !insn.addr !34
  %30 = inttoptr i32 %esp.02.reload to i32*, !insn.addr !13
  store i32 %8, i32* %30, align 4, !insn.addr !13
  %31 = inttoptr i32 %26 to i32*, !insn.addr !14
  store i32 %9, i32* %31, align 4, !insn.addr !14
  %32 = call i1 @__ZN9__gnu_cxxneIPKcNSt7__cxx1112basic_stringIcSt11char_traitsIcESaIcEEEEEbRKNS_17__normal_iteratorIT_T0_EESE_(i32* nonnull @0, i32* nonnull @0), !insn.addr !15
  %33 = icmp eq i1 %32, false, !insn.addr !16
  store i32* %31, i32** %.reg2mem, !insn.addr !17
  store i32* %30, i32** %.reg2mem3, !insn.addr !17
  store i32 %26, i32* %esp.02.reg2mem, !insn.addr !17
  br i1 %33, label %dec_label_pc_401712, label %dec_label_pc_401656, !insn.addr !17

dec_label_pc_401712:                              ; preds = %dec_label_pc_401656, %dec_label_pc_4015e8
  %34 = ptrtoint i32* %result to i32
  ret i32 %34, !insn.addr !35
}

define i32 @main(i32 %argc, i8** %argv) local_unnamed_addr {
dec_label_pc_40171b:
  %esp.0.reg2mem = alloca i32, !insn.addr !36
  %stack_var_-56 = alloca i32, align 4
  %stack_var_-80 = alloca i32, align 4
  %stack_var_-96 = alloca i32, align 4
  %0 = ptrtoint i32* %stack_var_-96 to i32, !insn.addr !37
  %1 = call i32 @___main(), !insn.addr !38
  %2 = ptrtoint i32* %stack_var_-80 to i32
  %3 = ptrtoint i32* %stack_var_-56 to i32
  store i32 %0, i32* %esp.0.reg2mem, !insn.addr !38
  br label %dec_label_pc_401733, !insn.addr !38

dec_label_pc_401733:                              ; preds = %dec_label_pc_401817, %dec_label_pc_40171b
  %esp.0.reload = load i32, i32* %esp.0.reg2mem
  %4 = call i32 @_ZNSt7__cxx1112basic_stringIcSt11char_traitsIcESaIcEEC1Ev(), !insn.addr !39
  %5 = add i32 %esp.0.reload, 4, !insn.addr !40
  %6 = inttoptr i32 %5 to i32*
  store i32 ptrtoint ([32 x i8]* @global_var_40904c to i32), i32* %6, align 4, !insn.addr !40
  %7 = inttoptr i32 %esp.0.reload to i32*
  store i32 4248440, i32* %7, align 4, !insn.addr !41
  %8 = call i32 @_ZStlsISt11char_traitsIcEERSt13basic_ostreamIcT_ES5_PKc(i32* nonnull @0, i8* bitcast (i32* @0 to i8*)), !insn.addr !42
  store i32 %2, i32* %6, align 4, !insn.addr !43
  store i32 4248436, i32* %7, align 4, !insn.addr !44
  %9 = call i32* @__ZStrsIcSt11char_traitsIcESaIcEERSt13basic_istreamIT_T0_ES7_RNSt7__cxx1112basic_stringIS4_S5_T1_EE(i32* nonnull @0, i32* nonnull @0), !insn.addr !45
  store i32 %2, i32* %6, align 4, !insn.addr !46
  store i32 %3, i32* %7, align 4, !insn.addr !47
  %10 = call i32 @__Z6cryptoRKNSt7__cxx1112basic_stringIcSt11char_traitsIcESaIcEEE(i32* nonnull @0, i32* nonnull @0), !insn.addr !48
  store i32 ptrtoint ([92 x i8]* @global_var_40906c to i32), i32* %6, align 4, !insn.addr !49
  store i32 %3, i32* %7, align 4, !insn.addr !50
  %11 = call i1 @__ZSteqIcSt11char_traitsIcESaIcEEbRKNSt7__cxx1112basic_stringIT_T0_T1_EEPKS5_(i32* nonnull @0, i8* bitcast (i32* @0 to i8*)), !insn.addr !51
  %12 = call i32 @_ZNSt7__cxx1112basic_stringIcSt11char_traitsIcESaIcEED1Ev(), !insn.addr !52
  %13 = icmp eq i1 %11, false, !insn.addr !53
  br i1 %13, label %dec_label_pc_4017ca, label %dec_label_pc_401799, !insn.addr !54

dec_label_pc_401799:                              ; preds = %dec_label_pc_401733
  store i32 ptrtoint ([15 x i8]* @global_var_4090c8 to i32), i32* %6, align 4, !insn.addr !55
  store i32 4248440, i32* %7, align 4, !insn.addr !56
  %14 = call i32 @_ZStlsISt11char_traitsIcEERSt13basic_ostreamIcT_ES5_PKc(i32* nonnull @0, i8* bitcast (i32* @0 to i8*)), !insn.addr !57
  store i32 4200668, i32* %7, align 4, !insn.addr !58
  %15 = call i32 @_ZNSolsEPFRSoS_E(i32* (i32*)* bitcast (i32* @0 to i32* (i32*)*)), !insn.addr !59
  br label %dec_label_pc_40182b, !insn.addr !60

dec_label_pc_4017ca:                              ; preds = %dec_label_pc_401733
  store i32 ptrtoint (i32* @global_var_4090d7 to i32), i32* %6, align 4, !insn.addr !61
  store i32 %2, i32* %7, align 4, !insn.addr !62
  %16 = call i1 @__ZSteqIcSt11char_traitsIcESaIcEEbRKNSt7__cxx1112basic_stringIT_T0_T1_EEPKS5_(i32* nonnull @0, i8* bitcast (i32* @0 to i8*)), !insn.addr !63
  %17 = icmp eq i1 %16, false, !insn.addr !64
  br i1 %17, label %dec_label_pc_401817, label %dec_label_pc_40182b, !insn.addr !65

dec_label_pc_401817:                              ; preds = %dec_label_pc_4017ca
  store i32 ptrtoint ([14 x i8]* @global_var_4090d9 to i32), i32* %6, align 4, !insn.addr !66
  store i32 4248440, i32* %7, align 4, !insn.addr !67
  %18 = call i32 @_ZStlsISt11char_traitsIcEERSt13basic_ostreamIcT_ES5_PKc(i32* nonnull @0, i8* bitcast (i32* @0 to i8*)), !insn.addr !68
  store i32 4200668, i32* %7, align 4, !insn.addr !69
  %19 = call i32 @_ZNSolsEPFRSoS_E(i32* (i32*)* bitcast (i32* @0 to i32* (i32*)*)), !insn.addr !70
  %20 = add i32 %esp.0.reload, -4, !insn.addr !71
  %21 = call i32 @_ZNSt7__cxx1112basic_stringIcSt11char_traitsIcESaIcEED1Ev(), !insn.addr !72
  store i32 %20, i32* %esp.0.reg2mem
  br label %dec_label_pc_401733

dec_label_pc_40182b:                              ; preds = %dec_label_pc_4017ca, %dec_label_pc_401799
  %22 = call i32 @_ZNSt7__cxx1112basic_stringIcSt11char_traitsIcESaIcEED1Ev(), !insn.addr !72
  %23 = call i32 @function_401845(), !insn.addr !73
  ret i32 %23, !insn.addr !73
}

define i32 @function_401845() local_unnamed_addr {
dec_label_pc_401845:
  %0 = call i32 @__decompiler_undefined_function_0()
  ret i32 %0, !insn.addr !74
}

define i32* @__ZStrsIcSt11char_traitsIcESaIcEERSt13basic_istreamIT_T0_ES7_RNSt7__cxx1112basic_stringIS4_S5_T1_EE(i32* %arg1, i32* %arg2) local_unnamed_addr {
dec_label_pc_4018cc:
  %0 = call i32 @_ZStrsIcSt11char_traitsIcESaIcEERSt13basic_istreamIT_T0_ES7_RNSt7__cxx1112basic_stringIS4_S5_T1_(), !insn.addr !75
  %1 = inttoptr i32 %0 to i32*, !insn.addr !75
  ret i32* %1, !insn.addr !75
}

define i32 @___do_global_ctors() local_unnamed_addr {
dec_label_pc_4019f0:
  %storemerge.reg2mem = alloca i32, !insn.addr !76
  %ebx.0.reg2mem = alloca i32, !insn.addr !76
  store i32 0, i32* %storemerge.reg2mem, !insn.addr !77
  br label %dec_label_pc_401a26, !insn.addr !77

dec_label_pc_401a03:                              ; preds = %dec_label_pc_401a34, %dec_label_pc_401a03
  %ebx.0.reload = load i32, i32* %ebx.0.reg2mem
  %0 = add i32 %ebx.0.reload, -1, !insn.addr !78
  %1 = icmp eq i32 %0, 0, !insn.addr !78
  %2 = icmp eq i1 %1, false, !insn.addr !79
  store i32 %0, i32* %ebx.0.reg2mem, !insn.addr !79
  br i1 %2, label %dec_label_pc_401a03, label %dec_label_pc_401a0f, !insn.addr !79

dec_label_pc_401a0f:                              ; preds = %dec_label_pc_401a03, %dec_label_pc_401a34
  %3 = call i32 @_atexit(i32 4200880), !insn.addr !80
  ret i32 %3, !insn.addr !81

dec_label_pc_401a26:                              ; preds = %dec_label_pc_401a26, %dec_label_pc_4019f0
  %storemerge.reload = load i32, i32* %storemerge.reg2mem
  %4 = add i32 %storemerge.reload, 1, !insn.addr !82
  %5 = mul i32 %4, 4, !insn.addr !83
  %6 = add i32 %5, ptrtoint (i32* @global_var_407db0 to i32), !insn.addr !83
  %7 = inttoptr i32 %6 to i32*, !insn.addr !83
  %8 = load i32, i32* %7, align 4, !insn.addr !83
  %9 = icmp eq i32 %8, 0, !insn.addr !84
  %10 = icmp eq i1 %9, false, !insn.addr !85
  store i32 %4, i32* %storemerge.reg2mem, !insn.addr !85
  br i1 %10, label %dec_label_pc_401a26, label %dec_label_pc_401a34, !insn.addr !85

dec_label_pc_401a34:                              ; preds = %dec_label_pc_401a26
  %11 = icmp eq i32 %storemerge.reload, 0, !insn.addr !86
  store i32 %storemerge.reload, i32* %ebx.0.reg2mem, !insn.addr !87
  br i1 %11, label %dec_label_pc_401a0f, label %dec_label_pc_401a03, !insn.addr !87
}

define i32 @___main() local_unnamed_addr {
dec_label_pc_401a40:
  %0 = load i32, i32* @global_var_40c038, align 4, !insn.addr !88
  %1 = icmp eq i32 %0, 0, !insn.addr !89
  br i1 %1, label %dec_label_pc_401a50, label %dec_label_pc_401a49, !insn.addr !90

dec_label_pc_401a49:                              ; preds = %dec_label_pc_401a40
  ret i32 %0, !insn.addr !91

dec_label_pc_401a50:                              ; preds = %dec_label_pc_401a40
  store i32 1, i32* @global_var_40c038, align 4, !insn.addr !92
  %2 = call i32 @___do_global_ctors(), !insn.addr !93
  ret i32 %2, !insn.addr !93
}

define i32 @__Unwind_Resume(i32 %arg1) local_unnamed_addr {
dec_label_pc_402920:
  %0 = call i32 @_Unwind_Resume(), !insn.addr !94
  ret i32 %0, !insn.addr !94
}

define i32 @___chkstk_ms() local_unnamed_addr {
dec_label_pc_402928:
  %0 = call i32 @__decompiler_undefined_function_0()
  ret i32 %0, !insn.addr !95
}

define i32 @__ZN9__gnu_cxx12__to_xstringINSt7__cxx1112basic_stringIcSt11char_traitsIcESaIcEEEcEET_PFiPT0_jPKS8_PcEjSB_z(i32* %this, i32* %result, i32 (i8*, i32, i8*, i8*)* %arg3, i32 %arg4, i8* %arg5, ...) local_unnamed_addr {
dec_label_pc_407968:
  %0 = ptrtoint i32 (i8*, i32, i8*, i8*)* %arg3 to i32
  %1 = ptrtoint i32* %result to i32
  %stack_var_-21 = alloca i32, align 4
  %stack_var_20 = alloca i32, align 4
  %stack_var_-44 = alloca i32, align 4
  %2 = ptrtoint i32* %stack_var_-44 to i32, !insn.addr !96
  %3 = call i32 @___chkstk_ms(), !insn.addr !97
  %4 = sub i32 %2, %3, !insn.addr !98
  %5 = add i32 %4, 31, !insn.addr !99
  %6 = and i32 %5, -16, !insn.addr !100
  %7 = ptrtoint i32* %stack_var_20 to i32, !insn.addr !101
  %8 = add i32 %4, 12, !insn.addr !102
  %9 = inttoptr i32 %8 to i32*, !insn.addr !102
  store i32 %7, i32* %9, align 4, !insn.addr !102
  %10 = add i32 %4, 8, !insn.addr !103
  %11 = inttoptr i32 %10 to i32*, !insn.addr !103
  store i32 %arg4, i32* %11, align 4, !insn.addr !103
  %12 = add i32 %4, 4, !insn.addr !104
  %13 = inttoptr i32 %12 to i32*, !insn.addr !104
  store i32 %0, i32* %13, align 4, !insn.addr !104
  %14 = inttoptr i32 %4 to i32*, !insn.addr !105
  store i32 %6, i32* %14, align 4, !insn.addr !105
  %15 = call i32 @_ZNSaIcEC1Ev(), !insn.addr !106
  %16 = add i32 %6, %1, !insn.addr !107
  %17 = ptrtoint i32* %stack_var_-21 to i32, !insn.addr !108
  store i32 %17, i32* %11, align 4, !insn.addr !108
  store i32 %16, i32* %13, align 4, !insn.addr !109
  store i32 %6, i32* %14, align 4, !insn.addr !110
  %18 = call i32 @__ZNSt7__cxx1112basic_stringIcSt11char_traitsIcESaIcEEC1IPcvEET_S7_RKS3_(i8* bitcast (i32* @0 to i8*), i8* bitcast (i32* @0 to i8*), i32* nonnull @0), !insn.addr !111
  %19 = call i32 @_ZNSaIcED1Ev(), !insn.addr !112
  %20 = call i32 @function_407a1e(), !insn.addr !113
  ret i32 %20, !insn.addr !113
}

define i32 @function_407a1e() local_unnamed_addr {
dec_label_pc_407a1e:
  %0 = call i32 @__decompiler_undefined_function_0()
  %1 = add i32 %0, 8, !insn.addr !114
  %2 = inttoptr i32 %1 to i32*, !insn.addr !114
  %3 = load i32, i32* %2, align 4, !insn.addr !114
  ret i32 %3, !insn.addr !115
}

define i1 @__ZN9__gnu_cxx17__is_null_pointerIcEEbPT_(i8* %arg1) local_unnamed_addr {
dec_label_pc_407a28:
  %0 = icmp eq i8* %arg1, null, !insn.addr !116
  ret i1 %0, !insn.addr !117
}

define i32 @__ZN9__gnu_cxx17__normal_iteratorIPKcNSt7__cxx1112basic_stringIcSt11char_traitsIcESaIcEEEEppEv() local_unnamed_addr {
dec_label_pc_407a34:
  %0 = call i32 @__decompiler_undefined_function_0()
  %1 = add i32 %0, 1, !insn.addr !118
  %2 = inttoptr i32 %0 to i32*, !insn.addr !119
  store i32 %1, i32* %2, align 4, !insn.addr !119
  ret i32 %0, !insn.addr !120
}

define i1 @__ZN9__gnu_cxxneIPKcNSt7__cxx1112basic_stringIcSt11char_traitsIcESaIcEEEEEbRKNS_17__normal_iteratorIT_T0_EESE_(i32* %arg1, i32* %arg2) local_unnamed_addr {
dec_label_pc_407a50:
  %0 = call i32 @__ZNK9__gnu_cxx17__normal_iteratorIPKcNSt7__cxx1112basic_stringIcSt11char_traitsIcESaIcEEEE4baseEv(), !insn.addr !121
  %1 = inttoptr i32 %0 to i32*, !insn.addr !122
  %2 = load i32, i32* %1, align 4, !insn.addr !122
  %3 = call i32 @__ZNK9__gnu_cxx17__normal_iteratorIPKcNSt7__cxx1112basic_stringIcSt11char_traitsIcESaIcEEEE4baseEv(), !insn.addr !123
  %4 = inttoptr i32 %3 to i32*, !insn.addr !124
  %5 = load i32, i32* %4, align 4, !insn.addr !124
  %6 = icmp eq i32 %2, %5, !insn.addr !125
  %7 = icmp eq i1 %6, false, !insn.addr !126
  ret i1 %7, !insn.addr !127
}

define i32 @__ZNK9__gnu_cxx17__normal_iteratorIPKcNSt7__cxx1112basic_stringIcSt11char_traitsIcESaIcEEEE4baseEv() local_unnamed_addr {
dec_label_pc_407a78:
  %0 = call i32 @__decompiler_undefined_function_0()
  ret i32 %0, !insn.addr !128
}

define i32 @__ZNK9__gnu_cxx17__normal_iteratorIPKcNSt7__cxx1112basic_stringIcSt11char_traitsIcESaIcEEEEdeEv() local_unnamed_addr {
dec_label_pc_407a88:
  %0 = call i32 @__decompiler_undefined_function_0()
  ret i32 %0, !insn.addr !129
}

define void @__ZNSt7__cxx1112basic_stringIcSt11char_traitsIcESaIcEE12_M_constructIPcEEvT_S7_(i8* %arg1, i8* %arg2) local_unnamed_addr {
dec_label_pc_407ab0:
  %0 = call i32 @__decompiler_undefined_function_0()
  %sext = mul i32 %0, 16777216
  %1 = sdiv i32 %sext, 16777216, !insn.addr !130
  call void @__ZNSt7__cxx1112basic_stringIcSt11char_traitsIcESaIcEE16_M_construct_auxIPcEEvT_S7_St12__false_type(i8* %arg1, i8* %arg2, i32 %1), !insn.addr !130
  ret void, !insn.addr !131
}

define void @__ZNSt7__cxx1112basic_stringIcSt11char_traitsIcESaIcEE12_M_constructIPcEEvT_S7_St20forward_iterator_tag(i8* %arg1, i8* %arg2, i32 %arg3) local_unnamed_addr {
dec_label_pc_407adc:
  %esp.0.reg2mem = alloca i32, !insn.addr !132
  %stack_var_-76 = alloca i32, align 4
  %stack_var_-16 = alloca i32, align 4
  %stack_var_-60 = alloca i8*, align 4
  store i8* %arg1, i8** %stack_var_-60, align 4, !insn.addr !133
  %0 = call i1 @__ZN9__gnu_cxx17__is_null_pointerIcEEbPT_(i8* %arg1), !insn.addr !134
  %1 = icmp eq i1 %0, false, !insn.addr !135
  %2 = icmp eq i8* %arg1, %arg2, !insn.addr !136
  %or.cond = or i1 %2, %1
  br i1 %or.cond, label %dec_label_pc_407b19, label %dec_label_pc_407b0d, !insn.addr !137

dec_label_pc_407b0d:                              ; preds = %dec_label_pc_407adc
  store i8* getelementptr inbounds ([42 x i8], [42 x i8]* @global_var_4090e8, i32 0, i32 0), i8** %stack_var_-60, align 4, !insn.addr !138
  %3 = call i32 @_ZSt19__throw_logic_errorPKc(i8* getelementptr inbounds ([42 x i8], [42 x i8]* @global_var_4090e8, i32 0, i32 0)), !insn.addr !139
  br label %dec_label_pc_407b19, !insn.addr !139

dec_label_pc_407b19:                              ; preds = %dec_label_pc_407adc, %dec_label_pc_407b0d
  %4 = ptrtoint i8** %stack_var_-60 to i32, !insn.addr !140
  %5 = ptrtoint i8* %arg1 to i32
  %6 = bitcast i8** %stack_var_-60 to i32*
  store i32 %5, i32* %6, align 4
  %7 = call i32 @__ZSt8distanceIPcENSt15iterator_traitsIT_E15difference_typeES2_S2_(i8* %arg1, i8* %arg2), !insn.addr !141
  store i32 %7, i32* %stack_var_-16, align 4, !insn.addr !142
  %8 = icmp ult i32 %7, 16
  store i32 %4, i32* %esp.0.reg2mem, !insn.addr !143
  br i1 %8, label %dec_label_pc_407b76, label %dec_label_pc_407b36, !insn.addr !143

dec_label_pc_407b36:                              ; preds = %dec_label_pc_407b19
  %9 = bitcast i32* %stack_var_-16 to i8*
  store i8* %9, i8** %stack_var_-60, align 4, !insn.addr !144
  %10 = call i32 @_ZNSt7__cxx1112basic_stringIcSt11char_traitsIcESaIcEE9_M_createERjj(i32* nonnull %stack_var_-16, i32 0), !insn.addr !145
  %11 = inttoptr i32 %10 to i8*, !insn.addr !146
  %12 = call i32 @_ZNSt7__cxx1112basic_stringIcSt11char_traitsIcESaIcEE7_M_dataEPc(i8* %11), !insn.addr !147
  %13 = load i32, i32* %stack_var_-16, align 4, !insn.addr !148
  %14 = call i32 @_ZNSt7__cxx1112basic_stringIcSt11char_traitsIcESaIcEE11_M_capacityEj(i32 %13), !insn.addr !149
  %15 = ptrtoint i32* %stack_var_-76 to i32, !insn.addr !150
  store i32 %15, i32* %esp.0.reg2mem, !insn.addr !150
  br label %dec_label_pc_407b76, !insn.addr !150

dec_label_pc_407b76:                              ; preds = %dec_label_pc_407b36, %dec_label_pc_407b19
  %esp.0.reload = load i32, i32* %esp.0.reg2mem
  %16 = call i32 @_ZNKSt7__cxx1112basic_stringIcSt11char_traitsIcESaIcEE7_M_dataEv(), !insn.addr !151
  %17 = ptrtoint i8* %arg2 to i32, !insn.addr !152
  %18 = add i32 %esp.0.reload, 8, !insn.addr !153
  %19 = inttoptr i32 %18 to i32*, !insn.addr !153
  store i32 %17, i32* %19, align 4, !insn.addr !153
  %20 = add i32 %esp.0.reload, 4, !insn.addr !154
  %21 = inttoptr i32 %20 to i32*, !insn.addr !154
  store i32 %5, i32* %21, align 4, !insn.addr !154
  %22 = inttoptr i32 %esp.0.reload to i32*, !insn.addr !155
  store i32 %16, i32* %22, align 4, !insn.addr !155
  %23 = call i32 @_ZNSt7__cxx1112basic_stringIcSt11char_traitsIcESaIcEE13_S_copy_charsEPcS5_S5_(i8* bitcast (i32* @0 to i8*), i8* bitcast (i32* @0 to i8*), i8* bitcast (i32* @0 to i8*)), !insn.addr !156
  %24 = load i32, i32* %stack_var_-16, align 4, !insn.addr !157
  store i32 %24, i32* %22, align 4, !insn.addr !158
  %25 = call i32 @_ZNSt7__cxx1112basic_stringIcSt11char_traitsIcESaIcEE13_M_set_lengthEj(i32 ptrtoint (i32* @0 to i32)), !insn.addr !159
  %26 = call i32 @function_407bd5(), !insn.addr !160
  ret void, !insn.addr !160
}

define i32 @function_407bd5() local_unnamed_addr {
dec_label_pc_407bd5:
  %0 = call i32 @__decompiler_undefined_function_0()
  ret i32 %0, !insn.addr !161
}

define void @__ZNSt7__cxx1112basic_stringIcSt11char_traitsIcESaIcEE16_M_construct_auxIPcEEvT_S7_St12__false_type(i8* %arg1, i8* %arg2, i32 %arg3) local_unnamed_addr {
dec_label_pc_407bdc:
  %0 = call i32 @__decompiler_undefined_function_0()
  %sext = mul i32 %0, 16777216
  %1 = sdiv i32 %sext, 16777216, !insn.addr !162
  call void @__ZNSt7__cxx1112basic_stringIcSt11char_traitsIcESaIcEE12_M_constructIPcEEvT_S7_St20forward_iterator_tag(i8* %arg1, i8* %arg2, i32 %1), !insn.addr !162
  ret void, !insn.addr !163
}

define i32 @__ZNSt7__cxx1112basic_stringIcSt11char_traitsIcESaIcEEC1IPcvEET_S7_RKS3_(i8* %arg1, i8* %arg2, i32* %arg3) local_unnamed_addr {
dec_label_pc_407c08:
  %0 = call i32 @_ZNSt7__cxx1112basic_stringIcSt11char_traitsIcESaIcEE13_M_local_dataEv(), !insn.addr !164
  %1 = inttoptr i32 %0 to i8*, !insn.addr !165
  %2 = call i32 @_ZNSt7__cxx1112basic_stringIcSt11char_traitsIcESaIcEE12_Alloc_hiderC1EPcRKS3_(i8* %1, i32* %arg3), !insn.addr !166
  call void @__ZNSt7__cxx1112basic_stringIcSt11char_traitsIcESaIcEE12_M_constructIPcEEvT_S7_(i8* %arg1, i8* %arg2), !insn.addr !167
  %3 = call i32 @function_407c67(), !insn.addr !168
  ret i32 %3, !insn.addr !168
}

define i32 @function_407c67() local_unnamed_addr {
dec_label_pc_407c67:
  %0 = call i32 @__decompiler_undefined_function_0()
  ret i32 %0, !insn.addr !169
}

define i32 @__ZNSt7__cxx119to_stringEi(i32* %result, i32 %arg2) local_unnamed_addr {
dec_label_pc_407c70:
  %0 = ptrtoint i32* %result to i32
  %1 = inttoptr i32 %arg2 to i8*, !insn.addr !170
  %2 = call i32 (i32*, i32*, i32 (i8*, i32, i8*, i8*)*, i32, i8*, ...) @__ZN9__gnu_cxx12__to_xstringINSt7__cxx1112basic_stringIcSt11char_traitsIcESaIcEEEcEET_PFiPT0_jPKS8_PcEjSB_z(i32* %result, i32* inttoptr (i32 4199872 to i32*), i32 (i8*, i32, i8*, i8*)* inttoptr (i32 16 to i32 (i8*, i32, i8*, i8*)*), i32 ptrtoint ([3 x i8]* @global_var_409045 to i32), i8* %1), !insn.addr !170
  ret i32 %0, !insn.addr !171
}

define i32 @__ZSt10__distanceIPcENSt15iterator_traitsIT_E15difference_typeES2_S2_St26random_access_iterator_tag(i8* %arg1, i8* %arg2, i32 %arg3) local_unnamed_addr {
dec_label_pc_407ca8:
  %0 = ptrtoint i8* %arg2 to i32
  %1 = ptrtoint i8* %arg1 to i32
  %2 = sub i32 %0, %1, !insn.addr !172
  ret i32 %2, !insn.addr !173
}

define i32 @__ZSt19__iterator_categoryIPcENSt15iterator_traitsIT_E17iterator_categoryERKS2_(i8** %arg1) local_unnamed_addr {
dec_label_pc_407cb4:
  %0 = call i32 @__decompiler_undefined_function_0()
  ret i32 %0, !insn.addr !174
}

define i32* @__ZSt4moveIRNSt7__cxx1112basic_stringIcSt11char_traitsIcESaIcEEEEONSt16remove_referenceIT_E4typeEOS8_(i32** %arg1) local_unnamed_addr {
dec_label_pc_407cb8:
  %0 = bitcast i32** %arg1 to i32*, !insn.addr !175
  ret i32* %0, !insn.addr !175
}

define i32 @__ZSt8distanceIPcENSt15iterator_traitsIT_E15difference_typeES2_S2_(i8* %arg1, i8* %arg2) local_unnamed_addr {
dec_label_pc_407cc0:
  %0 = call i32 @__decompiler_undefined_function_0()
  %stack_var_4 = alloca i8*, align 4
  store i8* %arg1, i8** %stack_var_4, align 4
  %1 = call i32 @__ZSt19__iterator_categoryIPcENSt15iterator_traitsIT_E17iterator_categoryERKS2_(i8** nonnull %stack_var_4), !insn.addr !176
  %2 = load i8*, i8** %stack_var_4, align 4
  %sext = mul i32 %0, 16777216
  %3 = sdiv i32 %sext, 16777216, !insn.addr !177
  %4 = call i32 @__ZSt10__distanceIPcENSt15iterator_traitsIT_E15difference_typeES2_S2_St26random_access_iterator_tag(i8* %2, i8* %arg2, i32 %3), !insn.addr !177
  ret i32 %4, !insn.addr !178
}

define i1 @__ZSteqIcSt11char_traitsIcESaIcEEbRKNSt7__cxx1112basic_stringIT_T0_T1_EEPKS5_(i32* %arg1, i8* %arg2) local_unnamed_addr {
dec_label_pc_407cf0:
  %0 = call i32 @_ZNKSt7__cxx1112basic_stringIcSt11char_traitsIcESaIcEE7compareEPKc(i8* %arg2), !insn.addr !179
  %1 = icmp eq i32 %0, 0, !insn.addr !180
  ret i1 %1, !insn.addr !181
}

define i32 @__ZStplIcSt11char_traitsIcESaIcEENSt7__cxx1112basic_stringIT_T0_T1_EEOS8_PKS5_(i32* %result, i32* %arg2, i8* %arg3) local_unnamed_addr {
dec_label_pc_407d10:
  %0 = ptrtoint i32* %result to i32
  %1 = call i32 @_ZNSt7__cxx1112basic_stringIcSt11char_traitsIcESaIcEE6appendEPKc(i8* %arg3), !insn.addr !182
  %2 = inttoptr i32 %1 to i32**, !insn.addr !183
  %3 = call i32* @__ZSt4moveIRNSt7__cxx1112basic_stringIcSt11char_traitsIcESaIcEEEEONSt16remove_referenceIT_E4typeEOS8_(i32** %2), !insn.addr !183
  %4 = call i32 @_ZNSt7__cxx1112basic_stringIcSt11char_traitsIcESaIcEEC1EOS4_(i32* %3), !insn.addr !184
  ret i32 %0, !insn.addr !185
}

declare i32 @_Unwind_Resume() local_unnamed_addr

declare i32 ()* @_onexit(i32 ()*) local_unnamed_addr

declare i32 @_ZNKSt7__cxx1112basic_stringIcSt11char_traitsIcESaIcEE3endEv() local_unnamed_addr

declare i32 @_ZNKSt7__cxx1112basic_stringIcSt11char_traitsIcESaIcEE5beginEv() local_unnamed_addr

declare i32 @_ZNKSt7__cxx1112basic_stringIcSt11char_traitsIcESaIcEE7_M_dataEv() local_unnamed_addr

declare i32 @_ZNKSt7__cxx1112basic_stringIcSt11char_traitsIcESaIcEE7compareEPKc(i8*) local_unnamed_addr

declare i32 @_ZNSaIcEC1Ev() local_unnamed_addr

declare i32 @_ZNSaIcED1Ev() local_unnamed_addr

declare i32 @_ZNSolsEPFRSoS_E(i32* (i32*)*) local_unnamed_addr

declare i32 @_ZNSt7__cxx1112basic_stringIcSt11char_traitsIcESaIcEE11_M_capacityEj(i32) local_unnamed_addr

declare i32 @_ZNSt7__cxx1112basic_stringIcSt11char_traitsIcESaIcEE12_Alloc_hiderC1EPcRKS3_(i8*, i32*) local_unnamed_addr

declare i32 @_ZNSt7__cxx1112basic_stringIcSt11char_traitsIcESaIcEE13_M_local_dataEv() local_unnamed_addr

declare i32 @_ZNSt7__cxx1112basic_stringIcSt11char_traitsIcESaIcEE13_M_set_lengthEj(i32) local_unnamed_addr

declare i32 @_ZNSt7__cxx1112basic_stringIcSt11char_traitsIcESaIcEE13_S_copy_charsEPcS5_S5_(i8*, i8*, i8*) local_unnamed_addr

declare i32 @_ZNSt7__cxx1112basic_stringIcSt11char_traitsIcESaIcEE6appendEPKc(i8*) local_unnamed_addr

declare i32 @_ZNSt7__cxx1112basic_stringIcSt11char_traitsIcESaIcEE7_M_dataEPc(i8*) local_unnamed_addr

declare i32 @_ZNSt7__cxx1112basic_stringIcSt11char_traitsIcESaIcEE9_M_createERjj(i32*, i32) local_unnamed_addr

declare i32 @_ZNSt7__cxx1112basic_stringIcSt11char_traitsIcESaIcEEC1EOS4_(i32*) local_unnamed_addr

declare i32 @_ZNSt7__cxx1112basic_stringIcSt11char_traitsIcESaIcEEC1EPKcRKS3_(i8*, i32*) local_unnamed_addr

declare i32 @_ZNSt7__cxx1112basic_stringIcSt11char_traitsIcESaIcEEC1Ev() local_unnamed_addr

declare i32 @_ZNSt7__cxx1112basic_stringIcSt11char_traitsIcESaIcEED1Ev() local_unnamed_addr

declare i32 @_ZNSt7__cxx1112basic_stringIcSt11char_traitsIcESaIcEEpLERKS4_(i32*) local_unnamed_addr

declare i32 @_ZSt19__throw_logic_errorPKc(i8*) local_unnamed_addr

declare i32 @_ZStlsISt11char_traitsIcEERSt13basic_ostreamIcT_ES5_PKc(i32*, i8*) local_unnamed_addr

declare i32 @_ZStrsIcSt11char_traitsIcESaIcEERSt13basic_istreamIT_T0_ES7_RNSt7__cxx1112basic_stringIS4_S5_T1_() local_unnamed_addr

declare i32 @__decompiler_undefined_function_0() local_unnamed_addr

!0 = !{i64 4199626}
!1 = !{i64 4199631}
!2 = !{i64 4199642}
!3 = !{i64 4199644}
!4 = !{i64 4199912}
!5 = !{i64 4199924}
!6 = !{i64 4199946}
!7 = !{i64 4199951}
!8 = !{i64 4199959}
!9 = !{i64 4199975}
!10 = !{i64 4199980}
!11 = !{i64 4199988}
!12 = !{i64 4199993}
!13 = !{i64 4199999}
!14 = !{i64 4200006}
!15 = !{i64 4200009}
!16 = !{i64 4200014}
!17 = !{i64 4200016}
!18 = !{i64 4200027}
!19 = !{i64 4200032}
!20 = !{i64 4200038}
!21 = !{i64 4200042}
!22 = !{i64 4200050}
!23 = !{i64 4200054}
!24 = !{i64 4200057}
!25 = !{i64 4200065}
!26 = !{i64 4200076}
!27 = !{i64 4200080}
!28 = !{i64 4200083}
!29 = !{i64 4200091}
!30 = !{i64 4200097}
!31 = !{i64 4200102}
!32 = !{i64 4200110}
!33 = !{i64 4200120}
!34 = !{i64 4200130}
!35 = !{i64 4200218}
!36 = !{i64 4200219}
!37 = !{i64 4200235}
!38 = !{i64 4200238}
!39 = !{i64 4200248}
!40 = !{i64 4200253}
!41 = !{i64 4200261}
!42 = !{i64 4200268}
!43 = !{i64 4200276}
!44 = !{i64 4200280}
!45 = !{i64 4200287}
!46 = !{i64 4200298}
!47 = !{i64 4200302}
!48 = !{i64 4200305}
!49 = !{i64 4200310}
!50 = !{i64 4200321}
!51 = !{i64 4200324}
!52 = !{i64 4200336}
!53 = !{i64 4200341}
!54 = !{i64 4200343}
!55 = !{i64 4200345}
!56 = !{i64 4200353}
!57 = !{i64 4200360}
!58 = !{i64 4200365}
!59 = !{i64 4200374}
!60 = !{i64 4200392}
!61 = !{i64 4200394}
!62 = !{i64 4200405}
!63 = !{i64 4200408}
!64 = !{i64 4200413}
!65 = !{i64 4200415}
!66 = !{i64 4200429}
!67 = !{i64 4200437}
!68 = !{i64 4200444}
!69 = !{i64 4200449}
!70 = !{i64 4200458}
!71 = !{i64 4200463}
!72 = !{i64 4200476}
!73 = !{i64 4200493}
!74 = !{i64 4200527}
!75 = !{i64 4200652}
!76 = !{i64 4200944}
!77 = !{i64 4200994}
!78 = !{i64 4200970}
!79 = !{i64 4200973}
!80 = !{i64 4200982}
!81 = !{i64 4200991}
!82 = !{i64 4200998}
!83 = !{i64 4201001}
!84 = !{i64 4201008}
!85 = !{i64 4201010}
!86 = !{i64 4200959}
!87 = !{i64 4200961}
!88 = !{i64 4201024}
!89 = !{i64 4201029}
!90 = !{i64 4201031}
!91 = !{i64 4201033}
!92 = !{i64 4201040}
!93 = !{i64 4201050}
!94 = !{i64 4204832}
!95 = !{i64 4204881}
!96 = !{i64 4225388}
!97 = !{i64 4225422}
!98 = !{i64 4225427}
!99 = !{i64 4225433}
!100 = !{i64 4225436}
!101 = !{i64 4225448}
!102 = !{i64 4225454}
!103 = !{i64 4225461}
!104 = !{i64 4225468}
!105 = !{i64 4225475}
!106 = !{i64 4225491}
!107 = !{i64 4225502}
!108 = !{i64 4225507}
!109 = !{i64 4225511}
!110 = !{i64 4225518}
!111 = !{i64 4225524}
!112 = !{i64 4225537}
!113 = !{i64 4225542}
!114 = !{i64 4225566}
!115 = !{i64 4225573}
!116 = !{i64 4225579}
!117 = !{i64 4225587}
!118 = !{i64 4225602}
!119 = !{i64 4225608}
!120 = !{i64 4225614}
!121 = !{i64 4225626}
!122 = !{i64 4225631}
!123 = !{i64 4225638}
!124 = !{i64 4225643}
!125 = !{i64 4225645}
!126 = !{i64 4225647}
!127 = !{i64 4225655}
!128 = !{i64 4225669}
!129 = !{i64 4225687}
!130 = !{i64 4225743}
!131 = !{i64 4225753}
!132 = !{i64 4225756}
!133 = !{i64 4225769}
!134 = !{i64 4225772}
!135 = !{i64 4225777}
!136 = !{i64 4225784}
!137 = !{i64 4225779}
!138 = !{i64 4225805}
!139 = !{i64 4225812}
!140 = !{i64 4225760}
!141 = !{i64 4225830}
!142 = !{i64 4225835}
!143 = !{i64 4225844}
!144 = !{i64 4225860}
!145 = !{i64 4225865}
!146 = !{i64 4225878}
!147 = !{i64 4225883}
!148 = !{i64 4225891}
!149 = !{i64 4225902}
!150 = !{i64 4225907}
!151 = !{i64 4225915}
!152 = !{i64 4225922}
!153 = !{i64 4225925}
!154 = !{i64 4225932}
!155 = !{i64 4225936}
!156 = !{i64 4225939}
!157 = !{i64 4225944}
!158 = !{i64 4225950}
!159 = !{i64 4225955}
!160 = !{i64 4225963}
!161 = !{i64 4226009}
!162 = !{i64 4226043}
!163 = !{i64 4226053}
!164 = !{i64 4226074}
!165 = !{i64 4226088}
!166 = !{i64 4226093}
!167 = !{i64 4226119}
!168 = !{i64 4226127}
!169 = !{i64 4226155}
!170 = !{i64 4226203}
!171 = !{i64 4226212}
!172 = !{i64 4226222}
!173 = !{i64 4226226}
!174 = !{i64 4226228}
!175 = !{i64 4226239}
!176 = !{i64 4226253}
!177 = !{i64 4226275}
!178 = !{i64 4226286}
!179 = !{i64 4226303}
!180 = !{i64 4226311}
!181 = !{i64 4226317}
!182 = !{i64 4226337}
!183 = !{i64 4226348}
!184 = !{i64 4226359}
!185 = !{i64 4226371}
