
flagvault:     file format elf32-i386


Disassembly of section .init:

0804839c <_init>:
 804839c:   53                      push   %ebx
 804839d:   83 ec 08                sub    $0x8,%esp
 80483a0:   e8 cb 00 00 00          call   8048470 <__x86.get_pc_thunk.bx>
 80483a5:   81 c3 5b 1c 00 00       add    $0x1c5b,%ebx
 80483ab:   8b 83 fc ff ff ff       mov    -0x4(%ebx),%eax
 80483b1:   85 c0                   test   %eax,%eax
 80483b3:   74 05                   je     80483ba <_init+0x1e>
 80483b5:   e8 76 00 00 00          call   8048430 <__gmon_start__@plt>
 80483ba:   83 c4 08                add    $0x8,%esp
 80483bd:   5b                      pop    %ebx
 80483be:   c3                      ret    

Disassembly of section .plt:

080483c0 <.plt>:
 80483c0:   ff 35 04 a0 04 08       pushl  0x804a004
 80483c6:   ff 25 08 a0 04 08       jmp    *0x804a008
 80483cc:   00 00                   add    %al,(%eax)
    ...

080483d0 <strcmp@plt>:
 80483d0:   ff 25 0c a0 04 08       jmp    *0x804a00c
 80483d6:   68 00 00 00 00          push   $0x0
 80483db:   e9 e0 ff ff ff          jmp    80483c0 <.plt>

080483e0 <printf@plt>:
 80483e0:   ff 25 10 a0 04 08       jmp    *0x804a010
 80483e6:   68 08 00 00 00          push   $0x8
 80483eb:   e9 d0 ff ff ff          jmp    80483c0 <.plt>

080483f0 <puts@plt>:
 80483f0:   ff 25 14 a0 04 08       jmp    *0x804a014
 80483f6:   68 10 00 00 00          push   $0x10
 80483fb:   e9 c0 ff ff ff          jmp    80483c0 <.plt>

08048400 <__libc_start_main@plt>:
 8048400:   ff 25 18 a0 04 08       jmp    *0x804a018
 8048406:   68 18 00 00 00          push   $0x18
 804840b:   e9 b0 ff ff ff          jmp    80483c0 <.plt>

08048410 <setvbuf@plt>:
 8048410:   ff 25 1c a0 04 08       jmp    *0x804a01c
 8048416:   68 20 00 00 00          push   $0x20
 804841b:   e9 a0 ff ff ff          jmp    80483c0 <.plt>

08048420 <__isoc99_scanf@plt>:
 8048420:   ff 25 20 a0 04 08       jmp    *0x804a020
 8048426:   68 28 00 00 00          push   $0x28
 804842b:   e9 90 ff ff ff          jmp    80483c0 <.plt>

Disassembly of section .plt.got:

08048430 <__gmon_start__@plt>:
 8048430:   ff 25 fc 9f 04 08       jmp    *0x8049ffc
 8048436:   66 90                   xchg   %ax,%ax

Disassembly of section .text:

08048440 <_start>:
 8048440:   31 ed                   xor    %ebp,%ebp
 8048442:   5e                      pop    %esi
 8048443:   89 e1                   mov    %esp,%ecx
 8048445:   83 e4 f0                and    $0xfffffff0,%esp
 8048448:   50                      push   %eax
 8048449:   54                      push   %esp
 804844a:   52                      push   %edx
 804844b:   68 70 87 04 08          push   $0x8048770
 8048450:   68 10 87 04 08          push   $0x8048710
 8048455:   51                      push   %ecx
 8048456:   56                      push   %esi
 8048457:   68 3b 85 04 08          push   $0x804853b
 804845c:   e8 9f ff ff ff          call   8048400 <__libc_start_main@plt>
 8048461:   f4                      hlt    
 8048462:   66 90                   xchg   %ax,%ax
 8048464:   66 90                   xchg   %ax,%ax
 8048466:   66 90                   xchg   %ax,%ax
 8048468:   66 90                   xchg   %ax,%ax
 804846a:   66 90                   xchg   %ax,%ax
 804846c:   66 90                   xchg   %ax,%ax
 804846e:   66 90                   xchg   %ax,%ax

08048470 <__x86.get_pc_thunk.bx>:
 8048470:   8b 1c 24                mov    (%esp),%ebx
 8048473:   c3                      ret    
 8048474:   66 90                   xchg   %ax,%ax
 8048476:   66 90                   xchg   %ax,%ax
 8048478:   66 90                   xchg   %ax,%ax
 804847a:   66 90                   xchg   %ax,%ax
 804847c:   66 90                   xchg   %ax,%ax
 804847e:   66 90                   xchg   %ax,%ax

08048480 <deregister_tm_clones>:
 8048480:   b8 2f a0 04 08          mov    $0x804a02f,%eax
 8048485:   2d 2c a0 04 08          sub    $0x804a02c,%eax
 804848a:   83 f8 06                cmp    $0x6,%eax
 804848d:   76 1a                   jbe    80484a9 <deregister_tm_clones+0x29>
 804848f:   b8 00 00 00 00          mov    $0x0,%eax
 8048494:   85 c0                   test   %eax,%eax
 8048496:   74 11                   je     80484a9 <deregister_tm_clones+0x29>
 8048498:   55                      push   %ebp
 8048499:   89 e5                   mov    %esp,%ebp
 804849b:   83 ec 14                sub    $0x14,%esp
 804849e:   68 2c a0 04 08          push   $0x804a02c
 80484a3:   ff d0                   call   *%eax
 80484a5:   83 c4 10                add    $0x10,%esp
 80484a8:   c9                      leave  
 80484a9:   f3 c3                   repz ret 
 80484ab:   90                      nop
 80484ac:   8d 74 26 00             lea    0x0(%esi,%eiz,1),%esi

080484b0 <register_tm_clones>:
 80484b0:   b8 2c a0 04 08          mov    $0x804a02c,%eax
 80484b5:   2d 2c a0 04 08          sub    $0x804a02c,%eax
 80484ba:   c1 f8 02                sar    $0x2,%eax
 80484bd:   89 c2                   mov    %eax,%edx
 80484bf:   c1 ea 1f                shr    $0x1f,%edx
 80484c2:   01 d0                   add    %edx,%eax
 80484c4:   d1 f8                   sar    %eax
 80484c6:   74 1b                   je     80484e3 <register_tm_clones+0x33>
 80484c8:   ba 00 00 00 00          mov    $0x0,%edx
 80484cd:   85 d2                   test   %edx,%edx
 80484cf:   74 12                   je     80484e3 <register_tm_clones+0x33>
 80484d1:   55                      push   %ebp
 80484d2:   89 e5                   mov    %esp,%ebp
 80484d4:   83 ec 10                sub    $0x10,%esp
 80484d7:   50                      push   %eax
 80484d8:   68 2c a0 04 08          push   $0x804a02c
 80484dd:   ff d2                   call   *%edx
 80484df:   83 c4 10                add    $0x10,%esp
 80484e2:   c9                      leave  
 80484e3:   f3 c3                   repz ret 
 80484e5:   8d 74 26 00             lea    0x0(%esi,%eiz,1),%esi
 80484e9:   8d bc 27 00 00 00 00    lea    0x0(%edi,%eiz,1),%edi

080484f0 <__do_global_dtors_aux>:
 80484f0:   80 3d 48 a0 04 08 00    cmpb   $0x0,0x804a048
 80484f7:   75 13                   jne    804850c <__do_global_dtors_aux+0x1c>
 80484f9:   55                      push   %ebp
 80484fa:   89 e5                   mov    %esp,%ebp
 80484fc:   83 ec 08                sub    $0x8,%esp
 80484ff:   e8 7c ff ff ff          call   8048480 <deregister_tm_clones>
 8048504:   c6 05 48 a0 04 08 01    movb   $0x1,0x804a048
 804850b:   c9                      leave  
 804850c:   f3 c3                   repz ret 
 804850e:   66 90                   xchg   %ax,%ax

08048510 <frame_dummy>:
 8048510:   b8 10 9f 04 08          mov    $0x8049f10,%eax
 8048515:   8b 10                   mov    (%eax),%edx
 8048517:   85 d2                   test   %edx,%edx
 8048519:   75 05                   jne    8048520 <frame_dummy+0x10>
 804851b:   eb 93                   jmp    80484b0 <register_tm_clones>
 804851d:   8d 76 00                lea    0x0(%esi),%esi
 8048520:   ba 00 00 00 00          mov    $0x0,%edx
 8048525:   85 d2                   test   %edx,%edx
 8048527:   74 f2                   je     804851b <frame_dummy+0xb>
 8048529:   55                      push   %ebp
 804852a:   89 e5                   mov    %esp,%ebp
 804852c:   83 ec 14                sub    $0x14,%esp
 804852f:   50                      push   %eax
 8048530:   ff d2                   call   *%edx
 8048532:   83 c4 10                add    $0x10,%esp
 8048535:   c9                      leave  
 8048536:   e9 75 ff ff ff          jmp    80484b0 <register_tm_clones>

0804853b <main>:
 804853b:   55                      push   %ebp
 804853c:   89 e5                   mov    %esp,%ebp
 804853e:   81 ec 14 02 00 00       sub    $0x214,%esp
 8048544:   c7 85 f7 fd ff ff 75    movl   $0x72657375,-0x209(%ebp)
 804854b:   73 65 72 
 804854e:   c7 85 fb fd ff ff 6e    movl   $0x656d616e,-0x205(%ebp)
 8048555:   61 6d 65 
 8048558:   c6 85 ff fd ff ff 00    movb   $0x0,-0x201(%ebp)
 804855f:   c7 85 ee fd ff ff 70    movl   $0x73736170,-0x212(%ebp)
 8048566:   61 73 73 
 8048569:   c7 85 f2 fd ff ff 77    movl   $0x64726f77,-0x20e(%ebp)
 8048570:   6f 72 64 
 8048573:   c6 85 f6 fd ff ff 00    movb   $0x0,-0x20a(%ebp)
 804857a:   a1 40 a0 04 08          mov    0x804a040,%eax
 804857f:   6a 00                   push   $0x0
 8048581:   6a 02                   push   $0x2
 8048583:   6a 00                   push   $0x0
 8048585:   50                      push   %eax
 8048586:   e8 85 fe ff ff          call   8048410 <setvbuf@plt>
 804858b:   83 c4 10                add    $0x10,%esp
 804858e:   a1 44 a0 04 08          mov    0x804a044,%eax
 8048593:   6a 00                   push   $0x0
 8048595:   6a 02                   push   $0x2
 8048597:   6a 00                   push   $0x0
 8048599:   50                      push   %eax
 804859a:   e8 71 fe ff ff          call   8048410 <setvbuf@plt>
 804859f:   83 c4 10                add    $0x10,%esp
 80485a2:   68 90 87 04 08          push   $0x8048790
 80485a7:   e8 44 fe ff ff          call   80483f0 <puts@plt>
 80485ac:   83 c4 04                add    $0x4,%esp
 80485af:   68 d8 87 04 08          push   $0x80487d8
 80485b4:   e8 37 fe ff ff          call   80483f0 <puts@plt>
 80485b9:   83 c4 04                add    $0x4,%esp
 80485bc:   68 d8 87 04 08          push   $0x80487d8
 80485c1:   e8 2a fe ff ff          call   80483f0 <puts@plt>
 80485c6:   83 c4 04                add    $0x4,%esp
 80485c9:   68 20 88 04 08          push   $0x8048820
 80485ce:   e8 1d fe ff ff          call   80483f0 <puts@plt>
 80485d3:   83 c4 04                add    $0x4,%esp
 80485d6:   68 68 88 04 08          push   $0x8048868
 80485db:   e8 10 fe ff ff          call   80483f0 <puts@plt>
 80485e0:   83 c4 04                add    $0x4,%esp
 80485e3:   68 b0 88 04 08          push   $0x80488b0
 80485e8:   e8 03 fe ff ff          call   80483f0 <puts@plt>
 80485ed:   83 c4 04                add    $0x4,%esp
 80485f0:   68 f8 88 04 08          push   $0x80488f8
 80485f5:   e8 f6 fd ff ff          call   80483f0 <puts@plt>
 80485fa:   83 c4 04                add    $0x4,%esp
 80485fd:   68 40 89 04 08          push   $0x8048940
 8048602:   e8 e9 fd ff ff          call   80483f0 <puts@plt>
 8048607:   83 c4 04                add    $0x4,%esp
 804860a:   68 88 89 04 08          push   $0x8048988
 804860f:   e8 dc fd ff ff          call   80483f0 <puts@plt>
 8048614:   83 c4 04                add    $0x4,%esp
 8048617:   68 ac 89 04 08          push   $0x80489ac
 804861c:   e8 cf fd ff ff          call   80483f0 <puts@plt>
 8048621:   83 c4 04                add    $0x4,%esp
 8048624:   68 d0 89 04 08          push   $0x80489d0
 8048629:   e8 c2 fd ff ff          call   80483f0 <puts@plt>
 804862e:   83 c4 04                add    $0x4,%esp
 8048631:   68 f0 89 04 08          push   $0x80489f0
 8048636:   e8 b5 fd ff ff          call   80483f0 <puts@plt>
 804863b:   83 c4 04                add    $0x4,%esp
 804863e:   68 3c 8a 04 08          push   $0x8048a3c
 8048643:   e8 a8 fd ff ff          call   80483f0 <puts@plt>
 8048648:   83 c4 04                add    $0x4,%esp
 804864b:   68 f0 89 04 08          push   $0x80489f0
 8048650:   e8 9b fd ff ff          call   80483f0 <puts@plt>
 8048655:   83 c4 04                add    $0x4,%esp
 8048658:   68 67 8a 04 08          push   $0x8048a67
 804865d:   e8 7e fd ff ff          call   80483e0 <printf@plt>
 8048662:   83 c4 04                add    $0x4,%esp
 8048665:   8d 85 00 fe ff ff       lea    -0x200(%ebp),%eax
 804866b:   50                      push   %eax
 804866c:   68 74 8a 04 08          push   $0x8048a74 ;Probably the name variable
 8048671:   e8 aa fd ff ff          call   8048420 <__isoc99_scanf@plt> ;Scann for the username
 8048676:   83 c4 08                add    $0x8,%esp
 8048679:   68 7a 8a 04 08          push   $0x8048a7a
 804867e:   e8 5d fd ff ff          call   80483e0 <printf@plt>
 8048683:   83 c4 04                add    $0x4,%esp
 8048686:   8d 85 00 fe ff ff       lea    -0x200(%ebp),%eax
 804868c:   50                      push   %eax
 804868d:   e8 4e fd ff ff          call   80483e0 <printf@plt>
 8048692:   83 c4 04                add    $0x4,%esp
 8048695:   68 8e 8a 04 08          push   $0x8048a8e
 804869a:   e8 41 fd ff ff          call   80483e0 <printf@plt>
 804869f:   83 c4 04                add    $0x4,%esp
 80486a2:   8d 85 00 ff ff ff       lea    -0x100(%ebp),%eax
 80486a8:   50                      push   %eax
 80486a9:   68 74 8a 04 08          push   $0x8048a74
 80486ae:   e8 6d fd ff ff          call   8048420 <__isoc99_scanf@plt> ;Scan for the password
 80486b3:   83 c4 08                add    $0x8,%esp
 80486b6:   8d 85 f7 fd ff ff       lea    -0x209(%ebp),%eax
 80486bc:   50                      push   %eax
 80486bd:   8d 85 00 fe ff ff       lea    -0x200(%ebp),%eax
 80486c3:   50                      push   %eax
 80486c4:   e8 07 fd ff ff          call   80483d0 <strcmp@plt>
 80486c9:   83 c4 08                add    $0x8,%esp
 80486cc:   85 c0                   test   %eax,%eax
 80486ce:   75 29                   jne    80486f9 <main+0x1be>
 80486d0:   8d 85 ee fd ff ff       lea    -0x212(%ebp),%eax
 80486d6:   50                      push   %eax
 80486d7:   8d 85 00 ff ff ff       lea    -0x100(%ebp),%eax
 80486dd:   50                      push   %eax
 80486de:   e8 ed fc ff ff          call   80483d0 <strcmp@plt>
 80486e3:   83 c4 08                add    $0x8,%esp
 80486e6:   85 c0                   test   %eax,%eax
 80486e8:   75 0f                   jne    80486f9 <main+0x1be>
 80486ea:   68 93 8a 04 08          push   $0x8048a93
 80486ef:   e8 fc fc ff ff          call   80483f0 <puts@plt>
 80486f4:   83 c4 04                add    $0x4,%esp
 80486f7:   eb 0d                   jmp    8048706 <main+0x1cb>
 80486f9:   68 aa 8a 04 08          push   $0x8048aaa
 80486fe:   e8 ed fc ff ff          call   80483f0 <puts@plt>
 8048703:   83 c4 04                add    $0x4,%esp
 8048706:   b8 00 00 00 00          mov    $0x0,%eax
 804870b:   c9                      leave  
 804870c:   c3                      ret    
 804870d:   66 90                   xchg   %ax,%ax
 804870f:   90                      nop

08048710 <__libc_csu_init>:
 8048710:   55                      push   %ebp
 8048711:   57                      push   %edi
 8048712:   56                      push   %esi
 8048713:   53                      push   %ebx
 8048714:   e8 57 fd ff ff          call   8048470 <__x86.get_pc_thunk.bx>
 8048719:   81 c3 e7 18 00 00       add    $0x18e7,%ebx
 804871f:   83 ec 0c                sub    $0xc,%esp
 8048722:   8b 6c 24 20             mov    0x20(%esp),%ebp
 8048726:   8d b3 0c ff ff ff       lea    -0xf4(%ebx),%esi
 804872c:   e8 6b fc ff ff          call   804839c <_init>
 8048731:   8d 83 08 ff ff ff       lea    -0xf8(%ebx),%eax
 8048737:   29 c6                   sub    %eax,%esi
 8048739:   c1 fe 02                sar    $0x2,%esi
 804873c:   85 f6                   test   %esi,%esi
 804873e:   74 25                   je     8048765 <__libc_csu_init+0x55>
 8048740:   31 ff                   xor    %edi,%edi
 8048742:   8d b6 00 00 00 00       lea    0x0(%esi),%esi
 8048748:   83 ec 04                sub    $0x4,%esp
 804874b:   ff 74 24 2c             pushl  0x2c(%esp)
 804874f:   ff 74 24 2c             pushl  0x2c(%esp)
 8048753:   55                      push   %ebp
 8048754:   ff 94 bb 08 ff ff ff    call   *-0xf8(%ebx,%edi,4)
 804875b:   83 c7 01                add    $0x1,%edi
 804875e:   83 c4 10                add    $0x10,%esp
 8048761:   39 f7                   cmp    %esi,%edi
 8048763:   75 e3                   jne    8048748 <__libc_csu_init+0x38>
 8048765:   83 c4 0c                add    $0xc,%esp
 8048768:   5b                      pop    %ebx
 8048769:   5e                      pop    %esi
 804876a:   5f                      pop    %edi
 804876b:   5d                      pop    %ebp
 804876c:   c3                      ret    
 804876d:   8d 76 00                lea    0x0(%esi),%esi

08048770 <__libc_csu_fini>:
 8048770:   f3 c3                   repz ret 

Disassembly of section .fini:

08048774 <_fini>:
 8048774:   53                      push   %ebx
 8048775:   83 ec 08                sub    $0x8,%esp
 8048778:   e8 f3 fc ff ff          call   8048470 <__x86.get_pc_thunk.bx>
 804877d:   81 c3 83 18 00 00       add    $0x1883,%ebx
 8048783:   83 c4 08                add    $0x8,%esp
 8048786:   5b                      pop    %ebx
 8048787:   c3                      ret    
