	.file	"mimic.cpp"
	.text
	.section	.rodata
	.type	_ZStL19piecewise_construct, @object
	.size	_ZStL19piecewise_construct, 1
_ZStL19piecewise_construct:
	.zero	1
	.type	_ZStL13allocator_arg, @object
	.size	_ZStL13allocator_arg, 1
_ZStL13allocator_arg:
	.zero	1
	.type	_ZStL6ignore, @object
	.size	_ZStL6ignore, 1
_ZStL6ignore:
	.zero	1
	.local	_ZStL8__ioinit
	.comm	_ZStL8__ioinit,1,1
	.align 4
	.type	_ZN9__gnu_cxxL21__default_lock_policyE, @object
	.size	_ZN9__gnu_cxxL21__default_lock_policyE, 4
_ZN9__gnu_cxxL21__default_lock_policyE:
	.long	2
	.type	_ZStL10defer_lock, @object
	.size	_ZStL10defer_lock, 1
_ZStL10defer_lock:
	.zero	1
	.type	_ZStL11try_to_lock, @object
	.size	_ZStL11try_to_lock, 1
_ZStL11try_to_lock:
	.zero	1
	.type	_ZStL10adopt_lock, @object
	.size	_ZStL10adopt_lock, 1
_ZStL10adopt_lock:
	.zero	1
	.align 4
	.type	_ZNSt15regex_constantsL5icaseE, @object
	.size	_ZNSt15regex_constantsL5icaseE, 4
_ZNSt15regex_constantsL5icaseE:
	.long	1
	.align 4
	.type	_ZNSt15regex_constantsL6nosubsE, @object
	.size	_ZNSt15regex_constantsL6nosubsE, 4
_ZNSt15regex_constantsL6nosubsE:
	.long	2
	.align 4
	.type	_ZNSt15regex_constantsL8optimizeE, @object
	.size	_ZNSt15regex_constantsL8optimizeE, 4
_ZNSt15regex_constantsL8optimizeE:
	.long	4
	.align 4
	.type	_ZNSt15regex_constantsL7collateE, @object
	.size	_ZNSt15regex_constantsL7collateE, 4
_ZNSt15regex_constantsL7collateE:
	.long	8
	.align 4
	.type	_ZNSt15regex_constantsL10ECMAScriptE, @object
	.size	_ZNSt15regex_constantsL10ECMAScriptE, 4
_ZNSt15regex_constantsL10ECMAScriptE:
	.long	16
	.align 4
	.type	_ZNSt15regex_constantsL5basicE, @object
	.size	_ZNSt15regex_constantsL5basicE, 4
_ZNSt15regex_constantsL5basicE:
	.long	32
	.align 4
	.type	_ZNSt15regex_constantsL8extendedE, @object
	.size	_ZNSt15regex_constantsL8extendedE, 4
_ZNSt15regex_constantsL8extendedE:
	.long	64
	.align 4
	.type	_ZNSt15regex_constantsL3awkE, @object
	.size	_ZNSt15regex_constantsL3awkE, 4
_ZNSt15regex_constantsL3awkE:
	.long	128
	.align 4
	.type	_ZNSt15regex_constantsL4grepE, @object
	.size	_ZNSt15regex_constantsL4grepE, 4
_ZNSt15regex_constantsL4grepE:
	.long	256
	.align 4
	.type	_ZNSt15regex_constantsL5egrepE, @object
	.size	_ZNSt15regex_constantsL5egrepE, 4
_ZNSt15regex_constantsL5egrepE:
	.long	512
	.align 4
	.type	_ZNSt15regex_constantsL12__polynomialE, @object
	.size	_ZNSt15regex_constantsL12__polynomialE, 4
_ZNSt15regex_constantsL12__polynomialE:
	.long	1024
	.align 4
	.type	_ZNSt15regex_constantsL13match_defaultE, @object
	.size	_ZNSt15regex_constantsL13match_defaultE, 4
_ZNSt15regex_constantsL13match_defaultE:
	.zero	4
	.align 4
	.type	_ZNSt15regex_constantsL13match_not_bolE, @object
	.size	_ZNSt15regex_constantsL13match_not_bolE, 4
_ZNSt15regex_constantsL13match_not_bolE:
	.long	1
	.align 4
	.type	_ZNSt15regex_constantsL13match_not_eolE, @object
	.size	_ZNSt15regex_constantsL13match_not_eolE, 4
_ZNSt15regex_constantsL13match_not_eolE:
	.long	2
	.align 4
	.type	_ZNSt15regex_constantsL13match_not_bowE, @object
	.size	_ZNSt15regex_constantsL13match_not_bowE, 4
_ZNSt15regex_constantsL13match_not_bowE:
	.long	4
	.align 4
	.type	_ZNSt15regex_constantsL13match_not_eowE, @object
	.size	_ZNSt15regex_constantsL13match_not_eowE, 4
_ZNSt15regex_constantsL13match_not_eowE:
	.long	8
	.align 4
	.type	_ZNSt15regex_constantsL9match_anyE, @object
	.size	_ZNSt15regex_constantsL9match_anyE, 4
_ZNSt15regex_constantsL9match_anyE:
	.long	16
	.align 4
	.type	_ZNSt15regex_constantsL14match_not_nullE, @object
	.size	_ZNSt15regex_constantsL14match_not_nullE, 4
_ZNSt15regex_constantsL14match_not_nullE:
	.long	32
	.align 4
	.type	_ZNSt15regex_constantsL16match_continuousE, @object
	.size	_ZNSt15regex_constantsL16match_continuousE, 4
_ZNSt15regex_constantsL16match_continuousE:
	.long	64
	.align 4
	.type	_ZNSt15regex_constantsL16match_prev_availE, @object
	.size	_ZNSt15regex_constantsL16match_prev_availE, 4
_ZNSt15regex_constantsL16match_prev_availE:
	.long	128
	.align 4
	.type	_ZNSt15regex_constantsL14format_defaultE, @object
	.size	_ZNSt15regex_constantsL14format_defaultE, 4
_ZNSt15regex_constantsL14format_defaultE:
	.zero	4
	.align 4
	.type	_ZNSt15regex_constantsL10format_sedE, @object
	.size	_ZNSt15regex_constantsL10format_sedE, 4
_ZNSt15regex_constantsL10format_sedE:
	.long	256
	.align 4
	.type	_ZNSt15regex_constantsL14format_no_copyE, @object
	.size	_ZNSt15regex_constantsL14format_no_copyE, 4
_ZNSt15regex_constantsL14format_no_copyE:
	.long	512
	.align 4
	.type	_ZNSt15regex_constantsL17format_first_onlyE, @object
	.size	_ZNSt15regex_constantsL17format_first_onlyE, 4
_ZNSt15regex_constantsL17format_first_onlyE:
	.long	1024
	.align 4
	.type	_ZNSt15regex_constantsL13error_collateE, @object
	.size	_ZNSt15regex_constantsL13error_collateE, 4
_ZNSt15regex_constantsL13error_collateE:
	.zero	4
	.align 4
	.type	_ZNSt15regex_constantsL11error_ctypeE, @object
	.size	_ZNSt15regex_constantsL11error_ctypeE, 4
_ZNSt15regex_constantsL11error_ctypeE:
	.long	1
	.align 4
	.type	_ZNSt15regex_constantsL12error_escapeE, @object
	.size	_ZNSt15regex_constantsL12error_escapeE, 4
_ZNSt15regex_constantsL12error_escapeE:
	.long	2
	.align 4
	.type	_ZNSt15regex_constantsL13error_backrefE, @object
	.size	_ZNSt15regex_constantsL13error_backrefE, 4
_ZNSt15regex_constantsL13error_backrefE:
	.long	3
	.align 4
	.type	_ZNSt15regex_constantsL11error_brackE, @object
	.size	_ZNSt15regex_constantsL11error_brackE, 4
_ZNSt15regex_constantsL11error_brackE:
	.long	4
	.align 4
	.type	_ZNSt15regex_constantsL11error_parenE, @object
	.size	_ZNSt15regex_constantsL11error_parenE, 4
_ZNSt15regex_constantsL11error_parenE:
	.long	5
	.align 4
	.type	_ZNSt15regex_constantsL11error_braceE, @object
	.size	_ZNSt15regex_constantsL11error_braceE, 4
_ZNSt15regex_constantsL11error_braceE:
	.long	6
	.align 4
	.type	_ZNSt15regex_constantsL14error_badbraceE, @object
	.size	_ZNSt15regex_constantsL14error_badbraceE, 4
_ZNSt15regex_constantsL14error_badbraceE:
	.long	7
	.align 4
	.type	_ZNSt15regex_constantsL11error_rangeE, @object
	.size	_ZNSt15regex_constantsL11error_rangeE, 4
_ZNSt15regex_constantsL11error_rangeE:
	.long	8
	.align 4
	.type	_ZNSt15regex_constantsL11error_spaceE, @object
	.size	_ZNSt15regex_constantsL11error_spaceE, 4
_ZNSt15regex_constantsL11error_spaceE:
	.long	9
	.align 4
	.type	_ZNSt15regex_constantsL15error_badrepeatE, @object
	.size	_ZNSt15regex_constantsL15error_badrepeatE, 4
_ZNSt15regex_constantsL15error_badrepeatE:
	.long	10
	.align 4
	.type	_ZNSt15regex_constantsL16error_complexityE, @object
	.size	_ZNSt15regex_constantsL16error_complexityE, 4
_ZNSt15regex_constantsL16error_complexityE:
	.long	11
	.align 4
	.type	_ZNSt15regex_constantsL11error_stackE, @object
	.size	_ZNSt15regex_constantsL11error_stackE, 4
_ZNSt15regex_constantsL11error_stackE:
	.long	12
	.align 8
	.type	_ZNSt8__detailL19_S_invalid_state_idE, @object
	.size	_ZNSt8__detailL19_S_invalid_state_idE, 8
_ZNSt8__detailL19_S_invalid_state_idE:
	.quad	-1
	.align 8
.LC0:
	.string	"=============================="
	.align 8
.LC1:
	.string	"Hi there! Enter the flag below "
	.align 8
.LC2:
	.string	"==============================\nFlag> "
.LC3:
	.string	"\r\n"
.LC4:
	.string	","
.LC5:
	.string	":Len"
.LC6:
	.string	"Not the flag :(\r"
.LC7:
	.string	"You got the flag!\r"
	.text
	.globl	main
	.type	main, @function
main:
.LFB8242:
	.cfi_startproc
	pushq	%rbp
	.cfi_def_cfa_offset 16
	.cfi_offset 6, -16
	movq	%rsp, %rbp
	.cfi_def_cfa_register 6
	pushq	%rbx
	subq	$1048, %rsp
	.cfi_offset 3, -24
	movq	%fs:40, %rax
	movq	%rax, -24(%rbp)
	xorl	%eax, %eax
	leaq	.LC0(%rip), %rdi
	call	puts@PLT
	leaq	.LC1(%rip), %rdi
	call	puts@PLT
	leaq	.LC2(%rip), %rdi
	movl	$0, %eax
	call	printf@PLT
	movq	stdin(%rip), %rdx
	leaq	-1024(%rbp), %rax
	movl	$1000, %esi
	movq	%rax, %rdi
	call	fgets@PLT
	leaq	-1024(%rbp), %rax
	leaq	.LC3(%rip), %rsi
	movq	%rax, %rdi
	call	strcspn@PLT
	movl	%eax, -1032(%rbp)
	movl	-1032(%rbp), %eax
	cltq
	movb	$0, -1024(%rbp,%rax)
	movl	$0, -1040(%rbp)
.L3:
	movl	-1040(%rbp), %eax
	movslq	%eax, %rbx
	leaq	-1024(%rbp), %rax
	movq	%rax, %rdi
	call	strlen@PLT
	cmpq	%rax, %rbx
	jnb	.L2
	movl	-1040(%rbp), %eax
	cltq
	movzbl	-1024(%rbp,%rax), %eax
	movsbl	%al, %eax
	movl	%eax, %esi
	leaq	_ZSt4cout(%rip), %rdi
	call	_ZStlsISt11char_traitsIcEERSt13basic_ostreamIcT_ES5_c@PLT
	leaq	.LC4(%rip), %rsi
	movq	%rax, %rdi
	call	_ZStlsISt11char_traitsIcEERSt13basic_ostreamIcT_ES5_PKc@PLT
	addl	$1, -1040(%rbp)
	jmp	.L3
.L2:
	leaq	.LC5(%rip), %rsi
	leaq	_ZSt4cout(%rip), %rdi
	call	_ZStlsISt11char_traitsIcEERSt13basic_ostreamIcT_ES5_PKc@PLT
	movq	%rax, %rbx
	leaq	-1024(%rbp), %rax
	movq	%rax, %rdi
	call	strlen@PLT
	movq	%rax, %rsi
	movq	%rbx, %rdi
	call	_ZNSolsEm@PLT
	movq	%rax, %rdx
	movq	_ZSt4endlIcSt11char_traitsIcEERSt13basic_ostreamIT_T0_ES6_@GOTPCREL(%rip), %rax
	movq	%rax, %rsi
	movq	%rdx, %rdi
	call	_ZNSolsEPFRSoS_E@PLT
	leaq	-1024(%rbp), %rax
	movq	%rax, %rdi
	call	strlen@PLT
	movl	%eax, -1028(%rbp)
	cmpl	$26, -1028(%rbp)
	jne	.L4
	movl	$0, -1036(%rbp)
.L8:
	movl	-1028(%rbp), %eax
	cmpl	-1036(%rbp), %eax
	jle	.L9
	movl	-1036(%rbp), %eax
	cltq
	movzbl	-1024(%rbp,%rax), %eax
	movb	%al, -1041(%rbp)
	cmpb	$42, -1041(%rbp)
	jne	.L15
	addl	$1, -1036(%rbp)
	jmp	.L8
.L4:
	leaq	.LC6(%rip), %rdi
	call	puts@PLT
	jmp	.L10
.L9:
	leaq	.LC7(%rip), %rdi
	call	puts@PLT
.L10:
	movl	$0, %eax
	movq	-24(%rbp), %rcx
	xorq	%fs:40, %rcx
	je	.L12
	jmp	.L14
.L15:
	nop
.L7:
	leaq	.LC6(%rip), %rdi
	call	puts@PLT
	jmp	.L10
.L14:
	call	__stack_chk_fail@PLT
.L12:
	addq	$1048, %rsp
	popq	%rbx
	popq	%rbp
	.cfi_def_cfa 7, 8
	ret
	.cfi_endproc
.LFE8242:
	.size	main, .-main
	.type	_Z41__static_initialization_and_destruction_0ii, @function
_Z41__static_initialization_and_destruction_0ii:
.LFB9552:
	.cfi_startproc
	pushq	%rbp
	.cfi_def_cfa_offset 16
	.cfi_offset 6, -16
	movq	%rsp, %rbp
	.cfi_def_cfa_register 6
	subq	$16, %rsp
	movl	%edi, -4(%rbp)
	movl	%esi, -8(%rbp)
	cmpl	$1, -4(%rbp)
	jne	.L18
	cmpl	$65535, -8(%rbp)
	jne	.L18
	leaq	_ZStL8__ioinit(%rip), %rdi
	call	_ZNSt8ios_base4InitC1Ev@PLT
	leaq	__dso_handle(%rip), %rdx
	leaq	_ZStL8__ioinit(%rip), %rsi
	movq	_ZNSt8ios_base4InitD1Ev@GOTPCREL(%rip), %rax
	movq	%rax, %rdi
	call	__cxa_atexit@PLT
.L18:
	nop
	leave
	.cfi_def_cfa 7, 8
	ret
	.cfi_endproc
.LFE9552:
	.size	_Z41__static_initialization_and_destruction_0ii, .-_Z41__static_initialization_and_destruction_0ii
	.type	_GLOBAL__sub_I_main, @function
_GLOBAL__sub_I_main:
.LFB9575:
	.cfi_startproc
	pushq	%rbp
	.cfi_def_cfa_offset 16
	.cfi_offset 6, -16
	movq	%rsp, %rbp
	.cfi_def_cfa_register 6
	movl	$65535, %esi
	movl	$1, %edi
	call	_Z41__static_initialization_and_destruction_0ii
	popq	%rbp
	.cfi_def_cfa 7, 8
	ret
	.cfi_endproc
.LFE9575:
	.size	_GLOBAL__sub_I_main, .-_GLOBAL__sub_I_main
	.section	.init_array,"aw"
	.align 8
	.quad	_GLOBAL__sub_I_main
	.hidden	__dso_handle
	.ident	"GCC: (Ubuntu 8.3.0-6ubuntu1~18.10.1) 8.3.0"
	.section	.note.GNU-stack,"",@progbits
